target datalayout = "e-m:e-p270:32:32-p271:32:32-p272:64:64-i64:64-i128:128-f80:128-n8:16:32:64-S128"
target triple = "x86_64-pc-linux-gnu"

%struct.rax = type { ptr, i64, i64, [0 x ptr] }

; Function Attrs: nounwind uwtable
define dso_local ptr @raxNewNode(i64 noundef %0, i32 noundef %1) #0 {
  %3 = alloca ptr, align 8
  %4 = alloca i64, align 8
  %5 = alloca i32, align 4
  %6 = alloca i64, align 8
  %7 = alloca ptr, align 8
  %8 = alloca i32, align 4
  store i64 %0, ptr %4, align 8, !tbaa !9
  store i32 %1, ptr %5, align 4, !tbaa !5
  call void @llvm.lifetime.start.p0(i64 8, ptr %6) #13
  %9 = load i64, ptr %4, align 8, !tbaa !9
  %10 = add i64 4, %9
  %11 = load i64, ptr %4, align 8, !tbaa !9
  %12 = add i64 %11, 4
  %13 = urem i64 %12, 8
  %14 = sub i64 8, %13
  %15 = and i64 %14, 7
  %16 = add i64 %10, %15
  %17 = load i64, ptr %4, align 8, !tbaa !9
  %18 = mul i64 8, %17
  %19 = add i64 %16, %18
  store i64 %19, ptr %6, align 8, !tbaa !9
  %20 = load i32, ptr %5, align 4, !tbaa !5
  %21 = icmp ne i32 %20, 0
  br i1 %21, label %22, label %25

22:                                               ; preds = %2
  %23 = load i64, ptr %6, align 8, !tbaa !9
  %24 = add i64 %23, 8
  store i64 %24, ptr %6, align 8, !tbaa !9
  br label %25

25:                                               ; preds = %22, %2
  call void @llvm.lifetime.start.p0(i64 8, ptr %7) #13
  %26 = load i64, ptr %6, align 8, !tbaa !9
  %27 = call noalias ptr @zmalloc(i64 noundef %26) #14
  store ptr %27, ptr %7, align 8, !tbaa !11
  %28 = load ptr, ptr %7, align 8, !tbaa !11
  %29 = icmp eq ptr %28, null
  br i1 %29, label %30, label %31

30:                                               ; preds = %25
  store ptr null, ptr %3, align 8
  store i32 1, ptr %8, align 4
  br label %53

31:                                               ; preds = %25
  %32 = load ptr, ptr %7, align 8, !tbaa !11
  %33 = load i32, ptr %32, align 4
  %34 = and i32 %33, -2
  %35 = or i32 %34, 0
  store i32 %35, ptr %32, align 4
  %36 = load ptr, ptr %7, align 8, !tbaa !11
  %37 = load i32, ptr %36, align 4
  %38 = and i32 %37, -3
  %39 = or i32 %38, 0
  store i32 %39, ptr %36, align 4
  %40 = load ptr, ptr %7, align 8, !tbaa !11
  %41 = load i32, ptr %40, align 4
  %42 = and i32 %41, -5
  %43 = or i32 %42, 0
  store i32 %43, ptr %40, align 4
  %44 = load i64, ptr %4, align 8, !tbaa !9
  %45 = trunc i64 %44 to i32
  %46 = load ptr, ptr %7, align 8, !tbaa !11
  %47 = load i32, ptr %46, align 4
  %48 = and i32 %45, 536870911
  %49 = shl i32 %48, 3
  %50 = and i32 %47, 7
  %51 = or i32 %50, %49
  store i32 %51, ptr %46, align 4
  %52 = load ptr, ptr %7, align 8, !tbaa !11
  store ptr %52, ptr %3, align 8
  store i32 1, ptr %8, align 4
  br label %53

53:                                               ; preds = %31, %30
  call void @llvm.lifetime.end.p0(i64 8, ptr %7) #13
  call void @llvm.lifetime.end.p0(i64 8, ptr %6) #13
  %54 = load ptr, ptr %3, align 8
  ret ptr %54
}

; Function Attrs: nounwind uwtable
define dso_local ptr @raxNewWithMetadata(i32 noundef %0) #0 {
  %2 = alloca ptr, align 8
  %3 = alloca i32, align 4
  %4 = alloca ptr, align 8
  %5 = alloca i32, align 4
  store i32 %0, ptr %3, align 4, !tbaa !5
  call void @llvm.lifetime.start.p0(i64 8, ptr %4) #13
  %6 = load i32, ptr %3, align 4, !tbaa !5
  %7 = sext i32 %6 to i64
  %8 = add i64 24, %7
  %9 = call noalias ptr @zmalloc(i64 noundef %8) #14
  store ptr %9, ptr %4, align 8, !tbaa !14
  %10 = load ptr, ptr %4, align 8, !tbaa !14
  %11 = icmp eq ptr %10, null
  br i1 %11, label %12, label %13

12:                                               ; preds = %1
  store ptr null, ptr %2, align 8
  store i32 1, ptr %5, align 4
  br label %29

13:                                               ; preds = %1
  %14 = load ptr, ptr %4, align 8, !tbaa !14
  %15 = getelementptr inbounds nuw %struct.rax, ptr %14, i32 0, i32 1
  store i64 0, ptr %15, align 8, !tbaa !9
  %16 = load ptr, ptr %4, align 8, !tbaa !14
  %17 = getelementptr inbounds nuw %struct.rax, ptr %16, i32 0, i32 2
  store i64 1, ptr %17, align 8, !tbaa !9
  %18 = call ptr @raxNewNode(i64 noundef 0, i32 noundef 0)
  %19 = load ptr, ptr %4, align 8, !tbaa !14
  %20 = getelementptr inbounds nuw %struct.rax, ptr %19, i32 0, i32 0
  store ptr %18, ptr %20, align 8, !tbaa !11
  %21 = load ptr, ptr %4, align 8, !tbaa !14
  %22 = getelementptr inbounds nuw %struct.rax, ptr %21, i32 0, i32 0
  %23 = load ptr, ptr %22, align 8, !tbaa !11
  %24 = icmp eq ptr %23, null
  br i1 %24, label %25, label %27

25:                                               ; preds = %13
  %26 = load ptr, ptr %4, align 8, !tbaa !14
  call void @zfree(ptr noundef %26)
  store ptr null, ptr %2, align 8
  store i32 1, ptr %5, align 4
  br label %29

27:                                               ; preds = %13
  %28 = load ptr, ptr %4, align 8, !tbaa !14
  store ptr %28, ptr %2, align 8
  store i32 1, ptr %5, align 4
  br label %29

29:                                               ; preds = %27, %25, %12
  call void @llvm.lifetime.end.p0(i64 8, ptr %4) #13
  %30 = load ptr, ptr %2, align 8
  ret ptr %30
}