; Function Attrs: nounwind uwtable
define dso_local ptr @raxNewWithMetadata(i32 noundef %0) local_unnamed_addr #1 {
  %2 = sext i32 %0 to i64
  %3 = add nsw i64 %2, 24
  %4 = tail call noalias ptr @zmalloc(i64 noundef %3) #25
  %5 = icmp eq ptr %4, null
  br i1 %5, label %12, label %6

6:                                                ; preds = %1
  %7 = getelementptr inbounds nuw i8, ptr %4, i64 8
  store i64 0, ptr %7, align 8, !tbaa !9
  %8 = getelementptr inbounds nuw i8, ptr %4, i64 16
  store i64 1, ptr %8, align 8, !tbaa !9
  %9 = tail call noalias dereferenceable_or_null(8) ptr @zmalloc(i64 noundef 8) #25
  %10 = icmp eq ptr %9, null
  br i1 %10, label %11, label %raxNewNode.exit

raxNewNode.exit:                                  ; preds = %6
  store i32 0, ptr %9, align 4
  store ptr %9, ptr %4, align 8, !tbaa !11
  br label %12

11:                                               ; preds = %6
  store ptr null, ptr %4, align 8, !tbaa !11
  tail call void @zfree(ptr noundef nonnull %4) #26
  br label %12

12:                                               ; preds = %raxNewNode.exit, %1, %11
  %.0 = phi ptr [ null, %11 ], [ null, %1 ], [ %4, %raxNewNode.exit ]
  ret ptr %.0
}